target datalayout = "e-m:e-p270:32:32-p271:32:32-p272:64:64-i64:64-i128:128-f80:128-n8:16:32:64-S128"
target triple = "x86_64-pc-linux-gnu"

%struct.tvbuff = type { ptr, ptr, i8, i32, ptr, ptr, i32, i32, i32, i32 }

@.str = private unnamed_addr constant [29 x i8] c"%s:%u: failed assertion \22%s\22\00", align 1
@.str.1 = private unnamed_addr constant [14 x i8] c"epan/tvbuff.c\00", align 1
@.str.5 = private unnamed_addr constant [24 x i8] c"tvb && tvb->initialized\00", align 1

; Function Attrs: null_pointer_is_valid sspstrong uwtable
define void @tvb_ensure_bytes_exist(ptr noundef %0, i32 noundef %1, i32 noundef %2) #0 {
  %4 = alloca ptr, align 8
  %5 = alloca i32, align 4
  %6 = alloca i32, align 4
  %7 = alloca i32, align 4
  %8 = alloca i32, align 4
  %9 = alloca i32, align 4
  %10 = alloca i32, align 4
  %11 = alloca i32, align 4
  %12 = alloca i32, align 4
  %13 = alloca i32, align 4
  %14 = alloca i32, align 4
  store ptr %0, ptr %4, align 8
  store i32 %1, ptr %5, align 4
  store i32 %2, ptr %6, align 4
  call void @llvm.lifetime.start.p0(i64 4, ptr %7) #16
  call void @llvm.lifetime.start.p0(i64 4, ptr %8) #16
  %15 = load ptr, ptr %4, align 8
  %16 = icmp ne ptr %15, null
  br i1 %16, label %17, label %23

17:                                               ; preds = %3
  %18 = load ptr, ptr %4, align 8
  %19 = getelementptr inbounds nuw %struct.tvbuff, ptr %18, i32 0, i32 2
  %20 = load i8, ptr %19, align 8, !range !9, !noundef !10
  %21 = trunc i8 %20 to i1
  br i1 %21, label %22, label %23

22:                                               ; preds = %17
  br label %25

23:                                               ; preds = %17, %3
  call void (ptr, ...) @proto_report_dissector_bug(ptr noundef @.str, ptr noundef @.str.1, i32 noundef 652, ptr noundef @.str.5) #18
  unreachable

24:                                               ; No predecessors!
  br label %25

25:                                               ; preds = %24, %22
  %26 = load i32, ptr %6, align 4
  %27 = icmp slt i32 %26, 0
  br i1 %27, label %28, label %29

28:                                               ; preds = %25
  call void @except_throw(i64 noundef 1, i64 noundef 3, ptr noundef null) #18
  unreachable

29:                                               ; preds = %25
  %30 = load i32, ptr %5, align 4
  %31 = icmp sge i32 %30, 0
  br i1 %31, label %32, label %71

32:                                               ; preds = %29
  call void @llvm.lifetime.start.p0(i64 4, ptr %9) #16
  %33 = load i32, ptr %5, align 4
  %34 = load ptr, ptr %4, align 8
  %35 = getelementptr inbounds nuw %struct.tvbuff, ptr %34, i32 0, i32 6
  %36 = load i32, ptr %35, align 8
  %37 = icmp ule i32 %33, %36
  br i1 %37, label %38, label %39

38:                                               ; preds = %32
  store i32 1, ptr %9, align 4
  br label %40

39:                                               ; preds = %32
  store i32 0, ptr %9, align 4
  br label %40

40:                                               ; preds = %39, %38
  %41 = load i32, ptr %9, align 4
  store i32 %41, ptr %10, align 4
  call void @llvm.lifetime.end.p0(i64 4, ptr %9) #16
  %42 = load i32, ptr %10, align 4
  %43 = sext i32 %42 to i64
  %44 = call i64 @llvm.expect.i64(i64 %43, i64 1)
  %45 = icmp ne i64 %44, 0
  br i1 %45, label %46, label %48

46:                                               ; preds = %40
  %47 = load i32, ptr %5, align 4
  store i32 %47, ptr %7, align 4
  br label %70

48:                                               ; preds = %40
  %49 = load i32, ptr %5, align 4
  %50 = load ptr, ptr %4, align 8
  %51 = getelementptr inbounds nuw %struct.tvbuff, ptr %50, i32 0, i32 8
  %52 = load i32, ptr %51, align 8
  %53 = icmp ule i32 %49, %52
  br i1 %53, label %54, label %55

54:                                               ; preds = %48
  call void @except_throw(i64 noundef 1, i64 noundef 1, ptr noundef null) #18
  unreachable

55:                                               ; preds = %48
  %56 = load ptr, ptr %4, align 8
  %57 = getelementptr inbounds nuw %struct.tvbuff, ptr %56, i32 0, i32 3
  %58 = load i32, ptr %57, align 4
  %59 = and i32 %58, 1
  %60 = icmp ne i32 %59, 0
  br i1 %60, label %61, label %62

61:                                               ; preds = %55
  call void @except_throw(i64 noundef 1, i64 noundef 4, ptr noundef null) #18
  unreachable

62:                                               ; preds = %55
  %63 = load i32, ptr %5, align 4
  %64 = load ptr, ptr %4, align 8
  %65 = getelementptr inbounds nuw %struct.tvbuff, ptr %64, i32 0, i32 7
  %66 = load i32, ptr %65, align 4
  %67 = icmp ule i32 %63, %66
  br i1 %67, label %68, label %69

68:                                               ; preds = %62
  call void @except_throw(i64 noundef 1, i64 noundef 2, ptr noundef null) #18
  unreachable

69:                                               ; preds = %62
  call void @except_throw(i64 noundef 1, i64 noundef 3, ptr noundef null) #18
  unreachable

70:                                               ; preds = %46
  br label %117

71:                                               ; preds = %29
  call void @llvm.lifetime.start.p0(i64 4, ptr %11) #16
  %72 = load i32, ptr %5, align 4
  %73 = sub i32 0, %72
  %74 = load ptr, ptr %4, align 8
  %75 = getelementptr inbounds nuw %struct.tvbuff, ptr %74, i32 0, i32 6
  %76 = load i32, ptr %75, align 8
  %77 = icmp ule i32 %73, %76
  br i1 %77, label %78, label %79

78:                                               ; preds = %71
  store i32 1, ptr %11, align 4
  br label %80

79:                                               ; preds = %71
  store i32 0, ptr %11, align 4
  br label %80

80:                                               ; preds = %79, %78
  %81 = load i32, ptr %11, align 4
  store i32 %81, ptr %12, align 4
  call void @llvm.lifetime.end.p0(i64 4, ptr %11) #16
  %82 = load i32, ptr %12, align 4
  %83 = sext i32 %82 to i64
  %84 = call i64 @llvm.expect.i64(i64 %83, i64 1)
  %85 = icmp ne i64 %84, 0
  br i1 %85, label %86, label %92

86:                                               ; preds = %80
  %87 = load ptr, ptr %4, align 8
  %88 = getelementptr inbounds nuw %struct.tvbuff, ptr %87, i32 0, i32 6
  %89 = load i32, ptr %88, align 8
  %90 = load i32, ptr %5, align 4
  %91 = add i32 %89, %90
  store i32 %91, ptr %7, align 4
  br label %116

92:                                               ; preds = %80
  %93 = load i32, ptr %5, align 4
  %94 = sub i32 0, %93
  %95 = load ptr, ptr %4, align 8
  %96 = getelementptr inbounds nuw %struct.tvbuff, ptr %95, i32 0, i32 8
  %97 = load i32, ptr %96, align 8
  %98 = icmp ule i32 %94, %97
  br i1 %98, label %99, label %100

99:                                               ; preds = %92
  call void @except_throw(i64 noundef 1, i64 noundef 1, ptr noundef null) #18
  unreachable

100:                                              ; preds = %92
  %101 = load ptr, ptr %4, align 8
  %102 = getelementptr inbounds nuw %struct.tvbuff, ptr %101, i32 0, i32 3
  %103 = load i32, ptr %102, align 4
  %104 = and i32 %103, 1
  %105 = icmp ne i32 %104, 0
  br i1 %105, label %106, label %107

106:                                              ; preds = %100
  call void @except_throw(i64 noundef 1, i64 noundef 4, ptr noundef null) #18
  unreachable

107:                                              ; preds = %100
  %108 = load i32, ptr %5, align 4
  %109 = sub i32 0, %108
  %110 = load ptr, ptr %4, align 8
  %111 = getelementptr inbounds nuw %struct.tvbuff, ptr %110, i32 0, i32 7
  %112 = load i32, ptr %111, align 4
  %113 = icmp ule i32 %109, %112
  br i1 %113, label %114, label %115

114:                                              ; preds = %107
  call void @except_throw(i64 noundef 1, i64 noundef 2, ptr noundef null) #18
  unreachable

115:                                              ; preds = %107
  call void @except_throw(i64 noundef 1, i64 noundef 3, ptr noundef null) #18
  unreachable

116:                                              ; preds = %86
  br label %117

117:                                              ; preds = %116, %70
  %118 = load i32, ptr %7, align 4
  %119 = load i32, ptr %6, align 4
  %120 = add i32 %118, %119
  store i32 %120, ptr %8, align 4
  %121 = load i32, ptr %8, align 4
  %122 = load i32, ptr %7, align 4
  %123 = icmp ult i32 %121, %122
  br i1 %123, label %124, label %125

124:                                              ; preds = %117
  call void @except_throw(i64 noundef 1, i64 noundef 1, ptr noundef null) #18
  unreachable

125:                                              ; preds = %117
  call void @llvm.lifetime.start.p0(i64 4, ptr %13) #16
  %126 = load i32, ptr %8, align 4
  %127 = load ptr, ptr %4, align 8
  %128 = getelementptr inbounds nuw %struct.tvbuff, ptr %127, i32 0, i32 6
  %129 = load i32, ptr %128, align 8
  %130 = icmp ule i32 %126, %129
  br i1 %130, label %131, label %132

131:                                              ; preds = %125
  store i32 1, ptr %13, align 4
  br label %133

132:                                              ; preds = %125
  store i32 0, ptr %13, align 4
  br label %133

133:                                              ; preds = %132, %131
  %134 = load i32, ptr %13, align 4
  store i32 %134, ptr %14, align 4
  call void @llvm.lifetime.end.p0(i64 4, ptr %13) #16
  %135 = load i32, ptr %14, align 4
  %136 = sext i32 %135 to i64
  %137 = call i64 @llvm.expect.i64(i64 %136, i64 1)
  %138 = icmp ne i64 %137, 0
  br i1 %138, label %139, label %140

139:                                              ; preds = %133
  call void @llvm.lifetime.end.p0(i64 4, ptr %8) #16
  call void @llvm.lifetime.end.p0(i64 4, ptr %7) #16
  ret void

140:                                              ; preds = %133
  %141 = load i32, ptr %8, align 4
  %142 = load ptr, ptr %4, align 8
  %143 = getelementptr inbounds nuw %struct.tvbuff, ptr %142, i32 0, i32 8
  %144 = load i32, ptr %143, align 8
  %145 = icmp ule i32 %141, %144
  br i1 %145, label %146, label %147

146:                                              ; preds = %140
  call void @except_throw(i64 noundef 1, i64 noundef 1, ptr noundef null) #18
  unreachable

147:                                              ; preds = %140
  %148 = load ptr, ptr %4, align 8
  %149 = getelementptr inbounds nuw %struct.tvbuff, ptr %148, i32 0, i32 3
  %150 = load i32, ptr %149, align 4
  %151 = and i32 %150, 1
  %152 = icmp ne i32 %151, 0
  br i1 %152, label %153, label %154

153:                                              ; preds = %147
  call void @except_throw(i64 noundef 1, i64 noundef 4, ptr noundef null) #18
  unreachable

154:                                              ; preds = %147
  %155 = load i32, ptr %8, align 4
  %156 = load ptr, ptr %4, align 8
  %157 = getelementptr inbounds nuw %struct.tvbuff, ptr %156, i32 0, i32 7
  %158 = load i32, ptr %157, align 4
  %159 = icmp ule i32 %155, %158
  br i1 %159, label %160, label %161

160:                                              ; preds = %154
  call void @except_throw(i64 noundef 1, i64 noundef 2, ptr noundef null) #18
  unreachable

161:                                              ; preds = %154
  call void @except_throw(i64 noundef 1, i64 noundef 3, ptr noundef null) #18
  unreachable
}