; Function Attrs: null_pointer_is_valid sspstrong uwtable
define void @tvb_ensure_bytes_exist(ptr noundef readonly captures(address_is_null) %0, i32 noundef %1, i32 noundef %2) local_unnamed_addr #0 {
  %.not = icmp eq ptr %0, null
  br i1 %.not, label %8, label %4

4:                                                ; preds = %3
  %5 = getelementptr inbounds nuw i8, ptr %0, i64 16
  %6 = load i8, ptr %5, align 8, !range !9, !noundef !10
  %7 = trunc nuw i8 %6 to i1
  br i1 %7, label %9, label %8

8:                                                ; preds = %4, %3
  tail call void (ptr, ...) @proto_report_dissector_bug(ptr noundef nonnull @.str, ptr noundef nonnull @.str.1, i32 noundef 652, ptr noundef nonnull @.str.5) #18
  unreachable

9:                                                ; preds = %4
  %10 = icmp slt i32 %2, 0
  br i1 %10, label %11, label %12

11:                                               ; preds = %9
  tail call void @except_throw(i64 noundef 1, i64 noundef 3, ptr noundef null) #18
  unreachable

12:                                               ; preds = %9
  %13 = icmp sgt i32 %1, -1
  br i1 %13, label %14, label %31

14:                                               ; preds = %12
  %15 = getelementptr inbounds nuw i8, ptr %0, i64 40
  %16 = load i32, ptr %15, align 8
  %.not50 = icmp ugt i32 %1, %16
  br i1 %.not50, label %17, label %51, !prof !11

17:                                               ; preds = %14
  %18 = getelementptr inbounds nuw i8, ptr %0, i64 48
  %19 = load i32, ptr %18, align 8
  %.not52 = icmp ugt i32 %1, %19
  br i1 %.not52, label %21, label %20

20:                                               ; preds = %17
  tail call void @except_throw(i64 noundef 1, i64 noundef 1, ptr noundef null) #18
  unreachable

21:                                               ; preds = %17
  %22 = getelementptr inbounds nuw i8, ptr %0, i64 20
  %23 = load i32, ptr %22, align 4
  %24 = and i32 %23, 1
  %.not53 = icmp eq i32 %24, 0
  br i1 %.not53, label %26, label %25

25:                                               ; preds = %21
  tail call void @except_throw(i64 noundef 1, i64 noundef 4, ptr noundef null) #18
  unreachable

26:                                               ; preds = %21
  %27 = getelementptr inbounds nuw i8, ptr %0, i64 44
  %28 = load i32, ptr %27, align 4
  %.not54 = icmp ugt i32 %1, %28
  br i1 %.not54, label %30, label %29

29:                                               ; preds = %26
  tail call void @except_throw(i64 noundef 1, i64 noundef 2, ptr noundef null) #18
  unreachable

30:                                               ; preds = %26
  tail call void @except_throw(i64 noundef 1, i64 noundef 3, ptr noundef null) #18
  unreachable

31:                                               ; preds = %12
  %32 = sub i32 0, %1
  %33 = getelementptr inbounds nuw i8, ptr %0, i64 40
  %34 = load i32, ptr %33, align 8
  %.not45 = icmp ult i32 %34, %32
  br i1 %.not45, label %37, label %35, !prof !11

35:                                               ; preds = %31
  %36 = add i32 %34, %1
  br label %51

37:                                               ; preds = %31
  %38 = getelementptr inbounds nuw i8, ptr %0, i64 48
  %39 = load i32, ptr %38, align 8
  %.not47 = icmp ult i32 %39, %32
  br i1 %.not47, label %41, label %40

40:                                               ; preds = %37
  tail call void @except_throw(i64 noundef 1, i64 noundef 1, ptr noundef null) #18
  unreachable

41:                                               ; preds = %37
  %42 = getelementptr inbounds nuw i8, ptr %0, i64 20
  %43 = load i32, ptr %42, align 4
  %44 = and i32 %43, 1
  %.not48 = icmp eq i32 %44, 0
  br i1 %.not48, label %46, label %45

45:                                               ; preds = %41
  tail call void @except_throw(i64 noundef 1, i64 noundef 4, ptr noundef null) #18
  unreachable

46:                                               ; preds = %41
  %47 = getelementptr inbounds nuw i8, ptr %0, i64 44
  %48 = load i32, ptr %47, align 4
  %.not49 = icmp ult i32 %48, %32
  br i1 %.not49, label %50, label %49

49:                                               ; preds = %46
  tail call void @except_throw(i64 noundef 1, i64 noundef 2, ptr noundef null) #18
  unreachable

50:                                               ; preds = %46
  tail call void @except_throw(i64 noundef 1, i64 noundef 3, ptr noundef null) #18
  unreachable

51:                                               ; preds = %14, %35
  %52 = phi i32 [ %34, %35 ], [ %16, %14 ]
  %.0 = phi i32 [ %36, %35 ], [ %1, %14 ]
  %53 = add i32 %.0, %2
  %54 = icmp ult i32 %53, %.0
  br i1 %54, label %55, label %56

55:                                               ; preds = %51
  tail call void @except_throw(i64 noundef 1, i64 noundef 1, ptr noundef null) #18
  unreachable

56:                                               ; preds = %51
  %.not55 = icmp ugt i32 %53, %52
  br i1 %.not55, label %58, label %57, !prof !11

57:                                               ; preds = %56
  ret void

58:                                               ; preds = %56
  %59 = getelementptr inbounds nuw i8, ptr %0, i64 48
  %60 = load i32, ptr %59, align 8
  %.not57 = icmp ugt i32 %53, %60
  br i1 %.not57, label %62, label %61

61:                                               ; preds = %58
  tail call void @except_throw(i64 noundef 1, i64 noundef 1, ptr noundef null) #18
  unreachable

62:                                               ; preds = %58
  %63 = getelementptr inbounds nuw i8, ptr %0, i64 20
  %64 = load i32, ptr %63, align 4
  %65 = and i32 %64, 1
  %.not58 = icmp eq i32 %65, 0
  br i1 %.not58, label %67, label %66

66:                                               ; preds = %62
  tail call void @except_throw(i64 noundef 1, i64 noundef 4, ptr noundef null) #18
  unreachable

67:                                               ; preds = %62
  %68 = getelementptr inbounds nuw i8, ptr %0, i64 44
  %69 = load i32, ptr %68, align 4
  %.not59 = icmp ugt i32 %53, %69
  br i1 %.not59, label %71, label %70

70:                                               ; preds = %67
  tail call void @except_throw(i64 noundef 1, i64 noundef 2, ptr noundef null) #18
  unreachable

71:                                               ; preds = %67
  tail call void @except_throw(i64 noundef 1, i64 noundef 3, ptr noundef null) #18
  unreachable
}